ccopy_reg
_reconstructor
p1
(c__main__
routerList
p2
c__builtin__
object
p3
NtRp4
(dp5
S'routerList'
p6
(lp7
g1
(c__main__
router
p8
g3
NtRp9
(dp10
S'cdp_entries'
p11
(lp12
g1
(c__main__
cdpEntry
p13
g3
NtRp14
(dp15
S'ipAddress'
p16
S'172.30.100.2'
p17
sS'dstPort'
p18
S'GigabitEthernet0/1'
p19
sS'hostname'
p20
S'R4'
p21
sS'srcPort'
p22
S'GigabitEthernet0/2'
p23
sbag1
(g13
g3
NtRp24
(dp25
g16
S'172.30.0.1'
p26
sg18
S'GigabitEthernet0/1'
p27
sg20
S'R1'
p28
sg22
S'GigabitEthernet0/1'
p29
sbag1
(g13
g3
NtRp30
(dp31
g16
S'172.30.0.2'
p32
sg18
S'GigabitEthernet0/1'
p33
sg20
S'R2'
p34
sg22
g29
sbasg20
S'R3'
p35
sg16
S'172.30.0.3'
p36
sS'capabilities'
p37
S'Router'
p38
sbag1
(g8
g3
NtRp39
(dp40
g11
(lp41
g1
(g13
g3
NtRp42
(dp43
g16
S'172.30.100.1'
p44
sg18
g23
sg20
S'R3'
p45
sg22
g19
sbasg20
S'R4'
p46
sg16
S'172.30.100.2'
p47
sg37
g38
sbag1
(g8
g3
NtRp48
(dp49
g11
(lp50
g1
(g13
g3
NtRp51
(dp52
g16
S'172.30.0.3'
p53
sg18
g29
sg20
S'R3'
p54
sg22
g27
sbag1
(g13
g3
NtRp55
(dp56
g16
S'172.30.0.2'
p57
sg18
g33
sg20
S'R2'
p58
sg22
g27
sbasg20
S'R1'
p59
sg16
S'172.30.0.1'
p60
sg37
g38
sbag1
(g8
g3
NtRp61
(dp62
g11
(lp63
g1
(g13
g3
NtRp64
(dp65
g16
S'172.30.0.3'
p66
sg18
g29
sg20
S'R3'
p67
sg22
g33
sbag1
(g13
g3
NtRp68
(dp69
g16
S'172.30.0.1'
p70
sg18
g27
sg20
S'R1'
p71
sg22
g33
sbag1
(g13
g3
NtRp72
(dp73
g16
S'172.30.50.2'
p74
sg18
S'GigabitEthernet0/1'
p75
sg20
S'R5'
p76
sg22
S'GigabitEthernet0/2'
p77
sbasg20
S'R2'
p78
sg16
S'172.30.0.2'
p79
sg37
g38
sbag1
(g8
g3
NtRp80
(dp81
g11
(lp82
g1
(g13
g3
NtRp83
(dp84
g16
S'172.30.50.1'
p85
sg18
g77
sg20
S'R2'
p86
sg22
g75
sbasg20
S'R5'
p87
sg16
S'172.30.50.2'
p88
sg37
g38
sbasb.