ccopy_reg
_reconstructor
p1
(c__main__
routerList
p2
c__builtin__
object
p3
NtRp4
(dp5
S'routerList'
p6
(lp7
g1
(c__main__
router
p8
g3
NtRp9
(dp10
S'cdp_entries'
p11
(lp12
g1
(c__main__
cdpEntry
p13
g3
NtRp14
(dp15
S'ipAddress'
p16
S'172.30.0.3'
p17
sS'dstPort'
p18
S'FastEthernet0/1'
p19
sS'hostname'
p20
S'R3'
p21
sS'srcPort'
p22
S'FastEthernet0/0'
p23
sbag1
(g13
g3
NtRp24
(dp25
g16
S'172.30.0.1'
p26
sg18
S'FastEthernet0/0'
p27
sg20
S'R1'
p28
sg22
g23
sbag1
(g13
g3
NtRp29
(dp30
g16
S'172.30.50.2'
p31
sg18
S'Serial0/0'
p32
sg20
S'R5'
p33
sg22
S'Serial0/0'
p34
sbasg20
S'R2'
p35
sg16
S'172.30.0.2'
p36
sS'capabilities'
p37
S'Router'
p38
sbag1
(g8
g3
NtRp39
(dp40
g11
(lp41
g1
(g13
g3
NtRp42
(dp43
g16
S'172.30.100.2'
p44
sg18
S'Serial0/0'
p45
sg20
S'R4'
p46
sg22
S'Serial0/0'
p47
sbag1
(g13
g3
NtRp48
(dp49
g16
S'172.30.0.1'
p50
sg18
S'FastEthernet0/0'
p51
sg20
S'R1'
p52
sg22
S'FastEthernet0/1'
p53
sbag1
(g13
g3
NtRp54
(dp55
g16
S'172.30.0.2'
p56
sg18
S'FastEthernet0/0'
p57
sg20
S'R2'
p58
sg22
g53
sbasg20
S'R3'
p59
sg16
S'172.30.0.3'
p60
sg37
g38
sbag1
(g8
g3
NtRp61
(dp62
g11
(lp63
g1
(g13
g3
NtRp64
(dp65
g16
S'172.30.100.1'
p66
sg18
S'Serial0/0'
p67
sg20
S'R3'
p68
sg22
S'Serial0/0'
p69
sbasg20
S'R4'
p70
sg16
S'172.30.100.2'
p71
sg37
g38
sbag1
(g8
g3
NtRp72
(dp73
g11
(lp74
g1
(g13
g3
NtRp75
(dp76
g16
S'172.30.0.3'
p77
sg18
S'FastEthernet0/1'
p78
sg20
S'R3'
p79
sg22
S'FastEthernet0/0'
p80
sbag1
(g13
g3
NtRp81
(dp82
g16
S'172.30.0.2'
p83
sg18
S'FastEthernet0/0'
p84
sg20
S'R2'
p85
sg22
g80
sbasg20
S'R1'
p86
sg16
S'172.30.0.1'
p87
sg37
g38
sbag1
(g8
g3
NtRp88
(dp89
g11
(lp90
g1
(g13
g3
NtRp91
(dp92
g16
S'172.30.50.1'
p93
sg18
S'Serial0/0'
p94
sg20
S'R2'
p95
sg22
S'Serial0/0'
p96
sbasg20
S'R5'
p97
sg16
S'172.30.50.2'
p98
sg37
g38
sbasb.